; ModuleID = 'source-C-CXX/61/1900.cpp'
source_filename = "source-C-CXX/61/1900.cpp"
target datalayout = "e-m:e-p270:32:32-p271:32:32-p272:64:64-i64:64-f80:128-n8:16:32:64-S128"
target triple = "x86_64-pc-linux-gnu"

%"class.std::ios_base::Init" = type { i8 }
%"class.std::basic_istream" = type { i32 (...)**, i64, %"class.std::basic_ios" }
%"class.std::basic_ios" = type { %"class.std::ios_base", %"class.std::basic_ostream"*, i8, i8, %"class.std::basic_streambuf"*, %"class.std::ctype"*, %"class.std::num_put"*, %"class.std::num_get"* }
%"class.std::ios_base" = type { i32 (...)**, i64, i64, i32, i32, i32, %"struct.std::ios_base::_Callback_list"*, %"struct.std::ios_base::_Words", [8 x %"struct.std::ios_base::_Words"], i32, %"struct.std::ios_base::_Words"*, %"class.std::locale" }
%"struct.std::ios_base::_Callback_list" = type { %"struct.std::ios_base::_Callback_list"*, void (i32, %"class.std::ios_base"*, i32)*, i32, i32 }
%"struct.std::ios_base::_Words" = type { i8*, i64 }
%"class.std::locale" = type { %"class.std::locale::_Impl"* }
%"class.std::locale::_Impl" = type { i32, %"class.std::locale::facet"**, i64, %"class.std::locale::facet"**, i8** }
%"class.std::locale::facet" = type <{ i32 (...)**, i32, [4 x i8] }>
%"class.std::basic_ostream" = type { i32 (...)**, %"class.std::basic_ios" }
%"class.std::basic_streambuf" = type { i32 (...)**, i8*, i8*, i8*, i8*, i8*, i8*, %"class.std::locale" }
%"class.std::ctype" = type <{ %"class.std::locale::facet.base", [4 x i8], %struct.__locale_struct*, i8, [7 x i8], i32*, i32*, i16*, i8, [256 x i8], [256 x i8], i8, [6 x i8] }>
%"class.std::locale::facet.base" = type <{ i32 (...)**, i32 }>
%struct.__locale_struct = type { [13 x %struct.__locale_data*], i16*, i32*, i32*, [13 x i8*] }
%struct.__locale_data = type opaque
%"class.std::num_put" = type { %"class.std::locale::facet.base", [4 x i8] }
%"class.std::num_get" = type { %"class.std::locale::facet.base", [4 x i8] }

@_ZStL8__ioinit = internal global %"class.std::ios_base::Init" zeroinitializer, align 1
@__dso_handle = external hidden global i8
@_ZSt3cin = external global %"class.std::basic_istream", align 8
@_ZSt4cout = external global %"class.std::basic_ostream", align 8
@llvm.global_ctors = appending global [1 x { i32, void ()*, i8* }] [{ i32, void ()*, i8* } { i32 65535, void ()* @_GLOBAL__sub_I_1900.cpp, i8* null }]

declare void @_ZNSt8ios_base4InitC1Ev(%"class.std::ios_base::Init"* nonnull align 1 dereferenceable(1)) unnamed_addr #0

; Function Attrs: nounwind
declare void @_ZNSt8ios_base4InitD1Ev(%"class.std::ios_base::Init"* nonnull align 1 dereferenceable(1)) unnamed_addr #1

; Function Attrs: nofree nounwind
declare i32 @__cxa_atexit(void (i8*)*, i8*, i8*) local_unnamed_addr #2

; Function Attrs: mustprogress norecurse sspstrong uwtable
define dso_local i32 @main() local_unnamed_addr #3 {
  %1 = alloca i8, align 1
  %2 = alloca [1000 x i8], align 16
  %3 = getelementptr inbounds [1000 x i8], [1000 x i8]* %2, i64 0, i64 0
  call void @llvm.lifetime.start.p0i8(i64 1000, i8* nonnull %3) #9
  %4 = load i8*, i8** bitcast (%"class.std::basic_istream"* @_ZSt3cin to i8**), align 8, !tbaa !5
  %5 = getelementptr i8, i8* %4, i64 -24
  %6 = bitcast i8* %5 to i64*
  %7 = load i64, i64* %6, align 8
  %8 = add nsw i64 %7, 240
  %9 = getelementptr inbounds i8, i8* bitcast (%"class.std::basic_istream"* @_ZSt3cin to i8*), i64 %8
  %10 = bitcast i8* %9 to %"class.std::ctype"**
  %11 = load %"class.std::ctype"*, %"class.std::ctype"** %10, align 8, !tbaa !8
  %12 = icmp eq %"class.std::ctype"* %11, null
  br i1 %12, label %13, label %14

13:                                               ; preds = %0
  tail call void @_ZSt16__throw_bad_castv() #10
  unreachable

14:                                               ; preds = %0
  %15 = getelementptr inbounds %"class.std::ctype", %"class.std::ctype"* %11, i64 0, i32 8
  %16 = load i8, i8* %15, align 8, !tbaa !13
  %17 = icmp eq i8 %16, 0
  br i1 %17, label %21, label %18

18:                                               ; preds = %14
  %19 = getelementptr inbounds %"class.std::ctype", %"class.std::ctype"* %11, i64 0, i32 9, i64 10
  %20 = load i8, i8* %19, align 1, !tbaa !15
  br label %27

21:                                               ; preds = %14
  tail call void @_ZNKSt5ctypeIcE13_M_widen_initEv(%"class.std::ctype"* nonnull align 8 dereferenceable(570) %11)
  %22 = bitcast %"class.std::ctype"* %11 to i8 (%"class.std::ctype"*, i8)***
  %23 = load i8 (%"class.std::ctype"*, i8)**, i8 (%"class.std::ctype"*, i8)*** %22, align 8, !tbaa !5
  %24 = getelementptr inbounds i8 (%"class.std::ctype"*, i8)*, i8 (%"class.std::ctype"*, i8)** %23, i64 6
  %25 = load i8 (%"class.std::ctype"*, i8)*, i8 (%"class.std::ctype"*, i8)** %24, align 8
  %26 = tail call signext i8 %25(%"class.std::ctype"* nonnull align 8 dereferenceable(570) %11, i8 signext 10)
  br label %27

27:                                               ; preds = %18, %21
  %28 = phi i8 [ %20, %18 ], [ %26, %21 ]
  %29 = call nonnull align 8 dereferenceable(16) %"class.std::basic_istream"* @_ZNSi7getlineEPclc(%"class.std::basic_istream"* nonnull align 8 dereferenceable(16) @_ZSt3cin, i8* nonnull %3, i64 1000, i8 signext %28)
  %30 = call i64 @strlen(i8* noundef nonnull %3) #11
  %31 = trunc i64 %30 to i32
  %32 = icmp sgt i32 %31, 0
  br i1 %32, label %36, label %202

33:                                               ; preds = %191
  %34 = getelementptr inbounds [1000 x i8], [1000 x i8]* %2, i64 0, i64 %193
  %35 = icmp sgt i32 %192, 0
  br i1 %35, label %196, label %202

36:                                               ; preds = %27, %191
  %37 = phi i64 [ %58, %191 ], [ 0, %27 ]
  %38 = phi i64 [ %195, %191 ], [ 1, %27 ]
  %39 = phi i32 [ %192, %191 ], [ %31, %27 ]
  %40 = trunc i64 %37 to i32
  %41 = add i32 %40, 2
  %42 = trunc i64 %37 to i32
  %43 = sub i32 -2, %42
  %44 = trunc i64 %37 to i32
  %45 = add i32 %44, 2
  %46 = trunc i64 %37 to i32
  %47 = sub i32 -2, %46
  %48 = add nuw i64 %37, 1
  %49 = getelementptr [1000 x i8], [1000 x i8]* %2, i64 0, i64 %48
  %50 = add nuw i64 %37, 2
  %51 = getelementptr [1000 x i8], [1000 x i8]* %2, i64 0, i64 %50
  %52 = trunc i64 %50 to i32
  %53 = trunc i64 %37 to i32
  %54 = sub i32 -2, %53
  %55 = getelementptr inbounds [1000 x i8], [1000 x i8]* %2, i64 0, i64 %37
  %56 = load i8, i8* %55, align 1, !tbaa !15
  %57 = icmp eq i8 %56, 32
  %58 = add nuw nsw i64 %37, 1
  br i1 %57, label %59, label %191

59:                                               ; preds = %36, %59
  %60 = phi i64 [ %65, %59 ], [ 0, %36 ]
  %61 = add nuw nsw i64 %60, %58
  %62 = getelementptr inbounds [1000 x i8], [1000 x i8]* %2, i64 0, i64 %61
  %63 = load i8, i8* %62, align 1, !tbaa !15
  %64 = icmp eq i8 %63, 32
  %65 = add nuw i64 %60, 1
  br i1 %64, label %59, label %66, !llvm.loop !16

66:                                               ; preds = %59
  %67 = trunc i64 %60 to i32
  %68 = icmp eq i32 %67, 0
  br i1 %68, label %191, label %69

69:                                               ; preds = %66
  %70 = sub nsw i32 %39, %67
  %71 = sext i32 %70 to i64
  %72 = icmp slt i64 %58, %71
  br i1 %72, label %73, label %191

73:                                               ; preds = %69
  %74 = and i64 %60, 4294967295
  %75 = sub i32 %39, %67
  %76 = call i32 @llvm.smax.i32(i32 %45, i32 %75)
  %77 = add i32 %76, %47
  %78 = zext i32 %77 to i64
  %79 = add nuw nsw i64 %78, 1
  %80 = icmp ult i32 %77, 7
  br i1 %80, label %180, label %81

81:                                               ; preds = %73
  %82 = sub i32 %39, %67
  %83 = call i32 @llvm.smax.i32(i32 %52, i32 %82)
  %84 = add i32 %83, %54
  %85 = zext i32 %84 to i64
  %86 = getelementptr i8, i8* %51, i64 %85
  %87 = getelementptr i8, i8* %49, i64 %74
  %88 = add nuw nsw i64 %74, %85
  %89 = getelementptr i8, i8* %51, i64 %88
  %90 = icmp ult i8* %49, %89
  %91 = icmp ult i8* %87, %86
  %92 = and i1 %90, %91
  br i1 %92, label %180, label %93

93:                                               ; preds = %81
  %94 = icmp ult i32 %77, 31
  br i1 %94, label %157, label %95

95:                                               ; preds = %93
  %96 = and i64 %79, 8589934560
  %97 = add nsw i64 %96, -32
  %98 = lshr exact i64 %97, 5
  %99 = add nuw nsw i64 %98, 1
  %100 = and i64 %99, 1
  %101 = icmp eq i64 %97, 0
  br i1 %101, label %135, label %102

102:                                              ; preds = %95
  %103 = and i64 %99, 1152921504606846974
  br label %104

104:                                              ; preds = %104, %102
  %105 = phi i64 [ 0, %102 ], [ %132, %104 ]
  %106 = phi i64 [ %103, %102 ], [ %133, %104 ]
  %107 = add i64 %38, %105
  %108 = add nuw nsw i64 %107, %74
  %109 = getelementptr inbounds [1000 x i8], [1000 x i8]* %2, i64 0, i64 %108
  %110 = bitcast i8* %109 to <16 x i8>*
  %111 = load <16 x i8>, <16 x i8>* %110, align 1, !tbaa !15, !alias.scope !18
  %112 = getelementptr inbounds i8, i8* %109, i64 16
  %113 = bitcast i8* %112 to <16 x i8>*
  %114 = load <16 x i8>, <16 x i8>* %113, align 1, !tbaa !15, !alias.scope !18
  %115 = getelementptr inbounds [1000 x i8], [1000 x i8]* %2, i64 0, i64 %107
  %116 = bitcast i8* %115 to <16 x i8>*
  store <16 x i8> %111, <16 x i8>* %116, align 1, !tbaa !15, !alias.scope !21, !noalias !18
  %117 = getelementptr inbounds i8, i8* %115, i64 16
  %118 = bitcast i8* %117 to <16 x i8>*
  store <16 x i8> %114, <16 x i8>* %118, align 1, !tbaa !15, !alias.scope !21, !noalias !18
  %119 = or i64 %105, 32
  %120 = add i64 %38, %119
  %121 = add nuw nsw i64 %120, %74
  %122 = getelementptr inbounds [1000 x i8], [1000 x i8]* %2, i64 0, i64 %121
  %123 = bitcast i8* %122 to <16 x i8>*
  %124 = load <16 x i8>, <16 x i8>* %123, align 1, !tbaa !15, !alias.scope !18
  %125 = getelementptr inbounds i8, i8* %122, i64 16
  %126 = bitcast i8* %125 to <16 x i8>*
  %127 = load <16 x i8>, <16 x i8>* %126, align 1, !tbaa !15, !alias.scope !18
  %128 = getelementptr inbounds [1000 x i8], [1000 x i8]* %2, i64 0, i64 %120
  %129 = bitcast i8* %128 to <16 x i8>*
  store <16 x i8> %124, <16 x i8>* %129, align 1, !tbaa !15, !alias.scope !21, !noalias !18
  %130 = getelementptr inbounds i8, i8* %128, i64 16
  %131 = bitcast i8* %130 to <16 x i8>*
  store <16 x i8> %127, <16 x i8>* %131, align 1, !tbaa !15, !alias.scope !21, !noalias !18
  %132 = add nuw i64 %105, 64
  %133 = add i64 %106, -2
  %134 = icmp eq i64 %133, 0
  br i1 %134, label %135, label %104, !llvm.loop !23

135:                                              ; preds = %104, %95
  %136 = phi i64 [ 0, %95 ], [ %132, %104 ]
  %137 = icmp eq i64 %100, 0
  br i1 %137, label %151, label %138

138:                                              ; preds = %135
  %139 = add i64 %38, %136
  %140 = add nuw nsw i64 %139, %74
  %141 = getelementptr inbounds [1000 x i8], [1000 x i8]* %2, i64 0, i64 %140
  %142 = bitcast i8* %141 to <16 x i8>*
  %143 = load <16 x i8>, <16 x i8>* %142, align 1, !tbaa !15, !alias.scope !18
  %144 = getelementptr inbounds i8, i8* %141, i64 16
  %145 = bitcast i8* %144 to <16 x i8>*
  %146 = load <16 x i8>, <16 x i8>* %145, align 1, !tbaa !15, !alias.scope !18
  %147 = getelementptr inbounds [1000 x i8], [1000 x i8]* %2, i64 0, i64 %139
  %148 = bitcast i8* %147 to <16 x i8>*
  store <16 x i8> %143, <16 x i8>* %148, align 1, !tbaa !15, !alias.scope !21, !noalias !18
  %149 = getelementptr inbounds i8, i8* %147, i64 16
  %150 = bitcast i8* %149 to <16 x i8>*
  store <16 x i8> %146, <16 x i8>* %150, align 1, !tbaa !15, !alias.scope !21, !noalias !18
  br label %151

151:                                              ; preds = %135, %138
  %152 = icmp eq i64 %79, %96
  br i1 %152, label %191, label %153

153:                                              ; preds = %151
  %154 = add nuw i64 %38, %96
  %155 = and i64 %79, 24
  %156 = icmp eq i64 %155, 0
  br i1 %156, label %180, label %157

157:                                              ; preds = %93, %153
  %158 = phi i64 [ %96, %153 ], [ 0, %93 ]
  %159 = trunc i64 %60 to i32
  %160 = sub i32 %39, %159
  %161 = call i32 @llvm.smax.i32(i32 %41, i32 %160)
  %162 = add i32 %161, %43
  %163 = zext i32 %162 to i64
  %164 = add nuw nsw i64 %163, 1
  %165 = and i64 %164, 8589934584
  %166 = add nuw i64 %38, %165
  br label %167

167:                                              ; preds = %167, %157
  %168 = phi i64 [ %158, %157 ], [ %176, %167 ]
  %169 = add i64 %38, %168
  %170 = add nuw nsw i64 %169, %74
  %171 = getelementptr inbounds [1000 x i8], [1000 x i8]* %2, i64 0, i64 %170
  %172 = bitcast i8* %171 to <8 x i8>*
  %173 = load <8 x i8>, <8 x i8>* %172, align 1, !tbaa !15
  %174 = getelementptr inbounds [1000 x i8], [1000 x i8]* %2, i64 0, i64 %169
  %175 = bitcast i8* %174 to <8 x i8>*
  store <8 x i8> %173, <8 x i8>* %175, align 1, !tbaa !15
  %176 = add nuw i64 %168, 8
  %177 = icmp eq i64 %176, %165
  br i1 %177, label %178, label %167, !llvm.loop !25

178:                                              ; preds = %167
  %179 = icmp eq i64 %164, %165
  br i1 %179, label %191, label %180

180:                                              ; preds = %81, %73, %153, %178
  %181 = phi i64 [ %38, %73 ], [ %38, %81 ], [ %154, %153 ], [ %166, %178 ]
  br label %182

182:                                              ; preds = %180, %182
  %183 = phi i64 [ %188, %182 ], [ %181, %180 ]
  %184 = add nuw nsw i64 %183, %74
  %185 = getelementptr inbounds [1000 x i8], [1000 x i8]* %2, i64 0, i64 %184
  %186 = load i8, i8* %185, align 1, !tbaa !15
  %187 = getelementptr inbounds [1000 x i8], [1000 x i8]* %2, i64 0, i64 %183
  store i8 %186, i8* %187, align 1, !tbaa !15
  %188 = add nuw nsw i64 %183, 1
  %189 = trunc i64 %188 to i32
  %190 = icmp sgt i32 %70, %189
  br i1 %190, label %182, label %191, !llvm.loop !26

191:                                              ; preds = %182, %151, %178, %36, %69, %66
  %192 = phi i32 [ %70, %69 ], [ %39, %66 ], [ %39, %36 ], [ %70, %178 ], [ %70, %151 ], [ %70, %182 ]
  %193 = sext i32 %192 to i64
  %194 = icmp slt i64 %58, %193
  %195 = add nuw nsw i64 %38, 1
  br i1 %194, label %36, label %33, !llvm.loop !27

196:                                              ; preds = %33, %196
  %197 = phi i8* [ %200, %196 ], [ %3, %33 ]
  %198 = load i8, i8* %197, align 1, !tbaa !15
  call void @llvm.lifetime.start.p0i8(i64 1, i8* nonnull %1)
  store i8 %198, i8* %1, align 1, !tbaa !15
  %199 = call nonnull align 8 dereferenceable(8) %"class.std::basic_ostream"* @_ZSt16__ostream_insertIcSt11char_traitsIcEERSt13basic_ostreamIT_T0_ES6_PKS3_l(%"class.std::basic_ostream"* nonnull align 8 dereferenceable(8) @_ZSt4cout, i8* nonnull %1, i64 1)
  call void @llvm.lifetime.end.p0i8(i64 1, i8* nonnull %1)
  %200 = getelementptr inbounds i8, i8* %197, i64 1
  %201 = icmp ult i8* %200, %34
  br i1 %201, label %196, label %202, !llvm.loop !28

202:                                              ; preds = %196, %27, %33
  call void @llvm.lifetime.end.p0i8(i64 1000, i8* nonnull %3) #9
  ret i32 0
}

; Function Attrs: argmemonly mustprogress nofree nosync nounwind willreturn
declare void @llvm.lifetime.start.p0i8(i64 immarg, i8* nocapture) #4

; Function Attrs: argmemonly mustprogress nofree nounwind readonly willreturn
declare i64 @strlen(i8* nocapture) local_unnamed_addr #5

; Function Attrs: argmemonly mustprogress nofree nosync nounwind willreturn
declare void @llvm.lifetime.end.p0i8(i64 immarg, i8* nocapture) #4

declare nonnull align 8 dereferenceable(16) %"class.std::basic_istream"* @_ZNSi7getlineEPclc(%"class.std::basic_istream"* nonnull align 8 dereferenceable(16), i8*, i64, i8 signext) local_unnamed_addr #0

; Function Attrs: noreturn
declare void @_ZSt16__throw_bad_castv() local_unnamed_addr #6

declare void @_ZNKSt5ctypeIcE13_M_widen_initEv(%"class.std::ctype"* nonnull align 8 dereferenceable(570)) local_unnamed_addr #0

declare nonnull align 8 dereferenceable(8) %"class.std::basic_ostream"* @_ZSt16__ostream_insertIcSt11char_traitsIcEERSt13basic_ostreamIT_T0_ES6_PKS3_l(%"class.std::basic_ostream"* nonnull align 8 dereferenceable(8), i8*, i64) local_unnamed_addr #0

; Function Attrs: sspstrong uwtable
define internal void @_GLOBAL__sub_I_1900.cpp() #7 section ".text.startup" {
  tail call void @_ZNSt8ios_base4InitC1Ev(%"class.std::ios_base::Init"* nonnull align 1 dereferenceable(1) @_ZStL8__ioinit)
  %1 = tail call i32 @__cxa_atexit(void (i8*)* bitcast (void (%"class.std::ios_base::Init"*)* @_ZNSt8ios_base4InitD1Ev to void (i8*)*), i8* getelementptr inbounds (%"class.std::ios_base::Init", %"class.std::ios_base::Init"* @_ZStL8__ioinit, i64 0, i32 0), i8* nonnull @__dso_handle) #9
  ret void
}

; Function Attrs: nofree nosync nounwind readnone speculatable willreturn
declare i32 @llvm.smax.i32(i32, i32) #8


!llvm.module.flags = !{!0, !1, !2, !3}
!llvm.ident = !{!4}

!0 = !{i32 1, !"wchar_size", i32 4}
!1 = !{i32 7, !"PIC Level", i32 2}
!2 = !{i32 7, !"PIE Level", i32 2}
!3 = !{i32 7, !"uwtable", i32 1}
!4 = !{!"clang version 13.0.0"}
!5 = !{!6, !6, i64 0}
!6 = !{!"vtable pointer", !7, i64 0}
!7 = !{!"Simple C++ TBAA"}
!8 = !{!9, !10, i64 240}
!9 = !{!"_ZTSSt9basic_iosIcSt11char_traitsIcEE", !10, i64 216, !11, i64 224, !12, i64 225, !10, i64 232, !10, i64 240, !10, i64 248, !10, i64 256}
!10 = !{!"any pointer", !11, i64 0}
!11 = !{!"omnipotent char", !7, i64 0}
!12 = !{!"bool", !11, i64 0}
!13 = !{!14, !11, i64 56}
!14 = !{!"_ZTSSt5ctypeIcE", !10, i64 16, !12, i64 24, !10, i64 32, !10, i64 40, !10, i64 48, !11, i64 56, !11, i64 57, !11, i64 313, !11, i64 569}
!15 = !{!11, !11, i64 0}
!16 = distinct !{!16, !17}
!17 = !{!"llvm.loop.mustprogress"}
!18 = !{!19}
!19 = distinct !{!19, !20}
!20 = distinct !{!20, !"LVerDomain"}
!21 = !{!22}
!22 = distinct !{!22, !20}
!23 = distinct !{!23, !17, !24}
!24 = !{!"llvm.loop.isvectorized", i32 1}
!25 = distinct !{!25, !17, !24}
!26 = distinct !{!26, !17, !24}
!27 = distinct !{!27, !17}
!28 = distinct !{!28, !17}
